(imatplotlib.font_manager
FontManager
p1
(dp2
S'afm_lookup_cache'
p3
(dp4
sS'ttflist'
p5
(lp6
ccopy_reg
_reconstructor
p7
(cmatplotlib.font_manager
FontEntry
p8
c__builtin__
object
p9
NtRp10
(dp11
S'style'
p12
S'normal'
p13
sS'name'
p14
S'cmex10'
p15
sS'weight'
p16
I400
sS'stretch'
p17
g13
sS'variant'
p18
g13
sS'fname'
p19
S'/System/Library/Frameworks/Python.framework/Versions/2.7/Extras/lib/python/matplotlib/mpl-data/fonts/ttf/cmex10.ttf'
p20
sS'size'
p21
S'scalable'
p22
sbag7
(g8
g9
NtRp23
(dp24
g12
S'oblique'
p25
sg14
S'Bitstream Vera Sans'
p26
sg16
I700
sg17
g13
sg18
g13
sg19
S'/System/Library/Frameworks/Python.framework/Versions/2.7/Extras/lib/python/matplotlib/mpl-data/fonts/ttf/VeraBI.ttf'
p27
sg21
g22
sbag7
(g8
g9
NtRp28
(dp29
g12
g13
sg14
S'STIXNonUnicode'
p30
sg16
I400
sg17
g13
sg18
g13
sg19
S'/System/Library/Frameworks/Python.framework/Versions/2.7/Extras/lib/python/matplotlib/mpl-data/fonts/ttf/STIXNonUni.ttf'
p31
sg21
g22
sbag7
(g8
g9
NtRp32
(dp33
g12
g13
sg14
S'STIXNonUnicode'
p34
sg16
I700
sg17
g13
sg18
g13
sg19
S'/System/Library/Frameworks/Python.framework/Versions/2.7/Extras/lib/python/matplotlib/mpl-data/fonts/ttf/STIXNonUniBol.ttf'
p35
sg21
g22
sbag7
(g8
g9
NtRp36
(dp37
g12
g13
sg14
S'Bitstream Vera Sans Mono'
p38
sg16
I700
sg17
g13
sg18
g13
sg19
S'/System/Library/Frameworks/Python.framework/Versions/2.7/Extras/lib/python/matplotlib/mpl-data/fonts/ttf/VeraMoBd.ttf'
p39
sg21
g22
sbag7
(g8
g9
NtRp40
(dp41
g12
g13
sg14
S'cmr10'
p42
sg16
I400
sg17
g13
sg18
g13
sg19
S'/System/Library/Frameworks/Python.framework/Versions/2.7/Extras/lib/python/matplotlib/mpl-data/fonts/ttf/cmr10.ttf'
p43
sg21
g22
sbag7
(g8
g9
NtRp44
(dp45
g12
g13
sg14
S'STIXGeneral'
p46
sg16
I400
sg17
g13
sg18
g13
sg19
S'/System/Library/Frameworks/Python.framework/Versions/2.7/Extras/lib/python/matplotlib/mpl-data/fonts/ttf/STIXGeneral.ttf'
p47
sg21
g22
sbag7
(g8
g9
NtRp48
(dp49
g12
g25
sg14
S'Bitstream Vera Sans Mono'
p50
sg16
I400
sg17
g13
sg18
g13
sg19
S'/System/Library/Frameworks/Python.framework/Versions/2.7/Extras/lib/python/matplotlib/mpl-data/fonts/ttf/VeraMoIt.ttf'
p51
sg21
g22
sbag7
(g8
g9
NtRp52
(dp53
g12
g13
sg14
S'Bitstream Vera Serif'
p54
sg16
I400
sg17
g13
sg18
g13
sg19
S'/System/Library/Frameworks/Python.framework/Versions/2.7/Extras/lib/python/matplotlib/mpl-data/fonts/ttf/VeraSe.ttf'
p55
sg21
g22
sbag7
(g8
g9
NtRp56
(dp57
g12
g13
sg14
S'STIXSizeFiveSym'
p58
sg16
I400
sg17
g13
sg18
g13
sg19
S'/System/Library/Frameworks/Python.framework/Versions/2.7/Extras/lib/python/matplotlib/mpl-data/fonts/ttf/STIXSizFiveSymReg.ttf'
p59
sg21
g22
sbag7
(g8
g9
NtRp60
(dp61
g12
g13
sg14
S'Bitstream Vera Sans Mono'
p62
sg16
I400
sg17
g13
sg18
g13
sg19
S'/System/Library/Frameworks/Python.framework/Versions/2.7/Extras/lib/python/matplotlib/mpl-data/fonts/ttf/VeraMono.ttf'
p63
sg21
g22
sbag7
(g8
g9
NtRp64
(dp65
g12
g25
sg14
S'Bitstream Vera Sans Mono'
p66
sg16
I700
sg17
g13
sg18
g13
sg19
S'/System/Library/Frameworks/Python.framework/Versions/2.7/Extras/lib/python/matplotlib/mpl-data/fonts/ttf/VeraMoBI.ttf'
p67
sg21
g22
sbag7
(g8
g9
NtRp68
(dp69
g12
g13
sg14
S'STIXGeneral'
p70
sg16
I700
sg17
g13
sg18
g13
sg19
S'/System/Library/Frameworks/Python.framework/Versions/2.7/Extras/lib/python/matplotlib/mpl-data/fonts/ttf/STIXGeneralBol.ttf'
p71
sg21
g22
sbag7
(g8
g9
NtRp72
(dp73
g12
S'italic'
p74
sg14
S'STIXGeneral'
p75
sg16
I400
sg17
g13
sg18
g13
sg19
S'/System/Library/Frameworks/Python.framework/Versions/2.7/Extras/lib/python/matplotlib/mpl-data/fonts/ttf/STIXGeneralItalic.ttf'
p76
sg21
g22
sbag7
(g8
g9
NtRp77
(dp78
g12
g13
sg14
S'STIXSizeFourSym'
p79
sg16
I400
sg17
g13
sg18
g13
sg19
S'/System/Library/Frameworks/Python.framework/Versions/2.7/Extras/lib/python/matplotlib/mpl-data/fonts/ttf/STIXSizFourSymReg.ttf'
p80
sg21
g22
sbag7
(g8
g9
NtRp81
(dp82
g12
g13
sg14
S'STIXSizeThreeSym'
p83
sg16
I700
sg17
g13
sg18
g13
sg19
S'/System/Library/Frameworks/Python.framework/Versions/2.7/Extras/lib/python/matplotlib/mpl-data/fonts/ttf/STIXSizThreeSymBol.ttf'
p84
sg21
g22
sbag7
(g8
g9
NtRp85
(dp86
g12
g13
sg14
S'STIXSizeOneSym'
p87
sg16
I700
sg17
g13
sg18
g13
sg19
S'/System/Library/Frameworks/Python.framework/Versions/2.7/Extras/lib/python/matplotlib/mpl-data/fonts/ttf/STIXSizOneSymBol.ttf'
p88
sg21
g22
sbag7
(g8
g9
NtRp89
(dp90
g12
g13
sg14
S'STIXSizeFourSym'
p91
sg16
I700
sg17
g13
sg18
g13
sg19
S'/System/Library/Frameworks/Python.framework/Versions/2.7/Extras/lib/python/matplotlib/mpl-data/fonts/ttf/STIXSizFourSymBol.ttf'
p92
sg21
g22
sbag7
(g8
g9
NtRp93
(dp94
g12
g13
sg14
S'Bitstream Vera Sans'
p95
sg16
I700
sg17
g13
sg18
g13
sg19
S'/System/Library/Frameworks/Python.framework/Versions/2.7/Extras/lib/python/matplotlib/mpl-data/fonts/ttf/VeraBd.ttf'
p96
sg21
g22
sbag7
(g8
g9
NtRp97
(dp98
g12
g13
sg14
S'cmsy10'
p99
sg16
I400
sg17
g13
sg18
g13
sg19
S'/System/Library/Frameworks/Python.framework/Versions/2.7/Extras/lib/python/matplotlib/mpl-data/fonts/ttf/cmsy10.ttf'
p100
sg21
g22
sbag7
(g8
g9
NtRp101
(dp102
g12
g13
sg14
S'STIXSizeTwoSym'
p103
sg16
I400
sg17
g13
sg18
g13
sg19
S'/System/Library/Frameworks/Python.framework/Versions/2.7/Extras/lib/python/matplotlib/mpl-data/fonts/ttf/STIXSizTwoSymReg.ttf'
p104
sg21
g22
sbag7
(g8
g9
NtRp105
(dp106
g12
g74
sg14
S'STIXNonUnicode'
p107
sg16
I700
sg17
g13
sg18
g13
sg19
S'/System/Library/Frameworks/Python.framework/Versions/2.7/Extras/lib/python/matplotlib/mpl-data/fonts/ttf/STIXNonUniBolIta.ttf'
p108
sg21
g22
sbag7
(g8
g9
NtRp109
(dp110
g12
g13
sg14
S'cmb10'
p111
sg16
I400
sg17
g13
sg18
g13
sg19
S'/System/Library/Frameworks/Python.framework/Versions/2.7/Extras/lib/python/matplotlib/mpl-data/fonts/ttf/cmb10.ttf'
p112
sg21
g22
sbag7
(g8
g9
NtRp113
(dp114
g12
g13
sg14
S'cmmi10'
p115
sg16
I400
sg17
g13
sg18
g13
sg19
S'/System/Library/Frameworks/Python.framework/Versions/2.7/Extras/lib/python/matplotlib/mpl-data/fonts/ttf/cmmi10.ttf'
p116
sg21
g22
sbag7
(g8
g9
NtRp117
(dp118
g12
g25
sg14
S'Bitstream Vera Sans'
p119
sg16
I400
sg17
g13
sg18
g13
sg19
S'/System/Library/Frameworks/Python.framework/Versions/2.7/Extras/lib/python/matplotlib/mpl-data/fonts/ttf/VeraIt.ttf'
p120
sg21
g22
sbag7
(g8
g9
NtRp121
(dp122
g12
g13
sg14
S'STIXSizeOneSym'
p123
sg16
I400
sg17
g13
sg18
g13
sg19
S'/System/Library/Frameworks/Python.framework/Versions/2.7/Extras/lib/python/matplotlib/mpl-data/fonts/ttf/STIXSizOneSymReg.ttf'
p124
sg21
g22
sbag7
(g8
g9
NtRp125
(dp126
g12
g13
sg14
S'Bitstream Vera Sans'
p127
sg16
I400
sg17
g13
sg18
g13
sg19
S'/System/Library/Frameworks/Python.framework/Versions/2.7/Extras/lib/python/matplotlib/mpl-data/fonts/ttf/Vera.ttf'
p128
sg21
g22
sbag7
(g8
g9
NtRp129
(dp130
g12
g13
sg14
S'cmss10'
p131
sg16
I400
sg17
g13
sg18
g13
sg19
S'/System/Library/Frameworks/Python.framework/Versions/2.7/Extras/lib/python/matplotlib/mpl-data/fonts/ttf/cmss10.ttf'
p132
sg21
g22
sbag7
(g8
g9
NtRp133
(dp134
g12
g13
sg14
S'Bitstream Vera Serif'
p135
sg16
I700
sg17
g13
sg18
g13
sg19
S'/System/Library/Frameworks/Python.framework/Versions/2.7/Extras/lib/python/matplotlib/mpl-data/fonts/ttf/VeraSeBd.ttf'
p136
sg21
g22
sbag7
(g8
g9
NtRp137
(dp138
g12
g13
sg14
S'STIXSizeTwoSym'
p139
sg16
I700
sg17
g13
sg18
g13
sg19
S'/System/Library/Frameworks/Python.framework/Versions/2.7/Extras/lib/python/matplotlib/mpl-data/fonts/ttf/STIXSizTwoSymBol.ttf'
p140
sg21
g22
sbag7
(g8
g9
NtRp141
(dp142
g12
g74
sg14
S'STIXNonUnicode'
p143
sg16
I400
sg17
g13
sg18
g13
sg19
S'/System/Library/Frameworks/Python.framework/Versions/2.7/Extras/lib/python/matplotlib/mpl-data/fonts/ttf/STIXNonUniIta.ttf'
p144
sg21
g22
sbag7
(g8
g9
NtRp145
(dp146
g12
g13
sg14
S'cmtt10'
p147
sg16
I400
sg17
g13
sg18
g13
sg19
S'/System/Library/Frameworks/Python.framework/Versions/2.7/Extras/lib/python/matplotlib/mpl-data/fonts/ttf/cmtt10.ttf'
p148
sg21
g22
sbag7
(g8
g9
NtRp149
(dp150
g12
g74
sg14
S'STIXGeneral'
p151
sg16
I700
sg17
g13
sg18
g13
sg19
S'/System/Library/Frameworks/Python.framework/Versions/2.7/Extras/lib/python/matplotlib/mpl-data/fonts/ttf/STIXGeneralBolIta.ttf'
p152
sg21
g22
sbag7
(g8
g9
NtRp153
(dp154
g12
g13
sg14
S'STIXSizeThreeSym'
p155
sg16
I400
sg17
g13
sg18
g13
sg19
S'/System/Library/Frameworks/Python.framework/Versions/2.7/Extras/lib/python/matplotlib/mpl-data/fonts/ttf/STIXSizThreeSymReg.ttf'
p156
sg21
g22
sbag7
(g8
g9
NtRp157
(dp158
g12
g13
sg14
S'.SF NS Display Condensed'
p159
sg16
I400
sg17
g13
sg18
g13
sg19
S'/System/Library/Fonts/SFNSDisplayCondensed-Regular.otf'
p160
sg21
g22
sbag7
(g8
g9
NtRp161
(dp162
g12
g74
sg14
S'Trebuchet MS'
p163
sg16
I400
sg17
g13
sg18
g13
sg19
S'/Library/Fonts/Trebuchet MS Italic.ttf'
p164
sg21
g22
sbag7
(g8
g9
NtRp165
(dp166
g12
g13
sg14
S'Hoefler Text'
p167
sg16
I400
sg17
g13
sg18
g13
sg19
S'/Library/Fonts/Hoefler Text Ornaments.ttf'
p168
sg21
g22
sbag7
(g8
g9
NtRp169
(dp170
g12
g13
sg14
S'.SF Compact Rounded'
p171
sg16
I400
sg17
g13
sg18
g13
sg19
S'/System/Library/Fonts/SFCompactRounded-Heavy.otf'
p172
sg21
g22
sbag7
(g8
g9
NtRp173
(dp174
g12
g13
sg14
S'Times New Roman'
p175
sg16
I500
sg17
g13
sg18
g13
sg19
S'/Library/Fonts/Times New Roman.ttf'
p176
sg21
g22
sbag7
(g8
g9
NtRp177
(dp178
g12
g13
sg14
S'.SF Compact Display'
p179
sg16
I400
sg17
g13
sg18
g13
sg19
S'/System/Library/Fonts/SFCompactDisplay-Medium.otf'
p180
sg21
g22
sbag7
(g8
g9
NtRp181
(dp182
g12
g13
sg14
S'Verdana'
p183
sg16
I700
sg17
g13
sg18
g13
sg19
S'/Library/Fonts/Verdana Bold.ttf'
p184
sg21
g22
sbag7
(g8
g9
NtRp185
(dp186
g12
g13
sg14
S'.SF Compact Rounded'
p187
sg16
I400
sg17
g13
sg18
g13
sg19
S'/System/Library/Fonts/SFCompactRounded-Medium.otf'
p188
sg21
g22
sbag7
(g8
g9
NtRp189
(dp190
g12
g13
sg14
S'Arial Unicode MS'
p191
sg16
I400
sg17
g13
sg18
g13
sg19
S'/Library/Fonts/Arial Unicode.ttf'
p192
sg21
g22
sbag7
(g8
g9
NtRp193
(dp194
g12
g13
sg14
S'STIXSizeThreeSym'
p195
sg16
I400
sg17
g13
sg18
g13
sg19
S'/Library/Fonts/STIXSizThreeSymReg.otf'
p196
sg21
g22
sbag7
(g8
g9
NtRp197
(dp198
g12
g13
sg14
S'DIN Condensed'
p199
sg16
I700
sg17
S'condensed'
p200
sg18
g13
sg19
S'/Library/Fonts/DIN Condensed Bold.ttf'
p201
sg21
g22
sbag7
(g8
g9
NtRp202
(dp203
g12
g13
sg14
S'TeamViewer13'
p204
sg16
I400
sg17
g13
sg18
g13
sg19
S'/Library/Fonts/TeamViewer13.otf'
p205
sg21
g22
sbag7
(g8
g9
NtRp206
(dp207
g12
g13
sg14
S'System Font'
p208
sg16
I400
sg17
g13
sg18
g13
sg19
S'/System/Library/Fonts/SFNSDisplay-BoldItalic.otf'
p209
sg21
g22
sbag7
(g8
g9
NtRp210
(dp211
g12
g13
sg14
S'Herculanum'
p212
sg16
I400
sg17
g13
sg18
g13
sg19
S'/Library/Fonts/Herculanum.ttf'
p213
sg21
g22
sbag7
(g8
g9
NtRp214
(dp215
g12
g13
sg14
S'Arial'
p216
sg16
I400
sg17
g13
sg18
g13
sg19
S'/Library/Fonts/Arial.ttf'
p217
sg21
g22
sbag7
(g8
g9
NtRp218
(dp219
g12
g13
sg14
S'.SF Compact Display'
p220
sg16
I400
sg17
g13
sg18
g13
sg19
S'/System/Library/Fonts/SFCompactDisplay-Semibold.otf'
p221
sg21
g22
sbag7
(g8
g9
NtRp222
(dp223
g12
g13
sg14
S'AppleGothic'
p224
sg16
I400
sg17
g13
sg18
g13
sg19
S'/Library/Fonts/AppleGothic.ttf'
p225
sg21
g22
sbag7
(g8
g9
NtRp226
(dp227
g12
g13
sg14
S'.SF NS Text Condensed'
p228
sg16
I400
sg17
g13
sg18
g13
sg19
S'/System/Library/Fonts/SFNSTextCondensed-Bold.otf'
p229
sg21
g22
sbag7
(g8
g9
NtRp230
(dp231
g12
g13
sg14
S'Arial Narrow'
p232
sg16
I400
sg17
g200
sg18
g13
sg19
S'/Library/Fonts/Arial Narrow.ttf'
p233
sg21
g22
sbag7
(g8
g9
NtRp234
(dp235
g12
g13
sg14
S'.SF NS Display Condensed'
p236
sg16
I400
sg17
g13
sg18
g13
sg19
S'/System/Library/Fonts/SFNSDisplayCondensed-Bold.otf'
p237
sg21
g22
sbag7
(g8
g9
NtRp238
(dp239
g12
g13
sg14
S'.SF Compact Rounded'
p240
sg16
I400
sg17
g13
sg18
g13
sg19
S'/System/Library/Fonts/SFCompactRounded-Ultralight.otf'
p241
sg21
g22
sbag7
(g8
g9
NtRp242
(dp243
g12
g13
sg14
S'.SF NS Display Condensed'
p244
sg16
I400
sg17
g13
sg18
g13
sg19
S'/System/Library/Fonts/SFNSDisplayCondensed-Semibold.otf'
p245
sg21
g22
sbag7
(g8
g9
NtRp246
(dp247
g12
g13
sg14
S'AppleMyungjo'
p248
sg16
I400
sg17
g13
sg18
g13
sg19
S'/Library/Fonts/AppleMyungjo.ttf'
p249
sg21
g22
sbag7
(g8
g9
NtRp250
(dp251
g12
g13
sg14
S'Mishafi Gold'
p252
sg16
I400
sg17
g13
sg18
g13
sg19
S'/Library/Fonts/Mishafi Gold.ttf'
p253
sg21
g22
sbag7
(g8
g9
NtRp254
(dp255
g12
g13
sg14
S'Zapf Dingbats'
p256
sg16
I400
sg17
g13
sg18
g13
sg19
S'/System/Library/Fonts/ZapfDingbats.ttf'
p257
sg21
g22
sbag7
(g8
g9
NtRp258
(dp259
g12
g13
sg14
S'.SF Compact Rounded'
p260
sg16
I400
sg17
g13
sg18
g13
sg19
S'/System/Library/Fonts/SFCompactRounded-Semibold.otf'
p261
sg21
g22
sbag7
(g8
g9
NtRp262
(dp263
g12
g13
sg14
S'.SF Compact Text'
p264
sg16
I400
sg17
g13
sg18
g13
sg19
S'/System/Library/Fonts/SFCompactText-BoldItalic.otf'
p265
sg21
g22
sbag7
(g8
g9
NtRp266
(dp267
g12
g13
sg14
S'STIXIntegralsD'
p268
sg16
I700
sg17
g13
sg18
g13
sg19
S'/Library/Fonts/STIXIntDBol.otf'
p269
sg21
g22
sbag7
(g8
g9
NtRp270
(dp271
g12
g13
sg14
S'System Font'
p272
sg16
I400
sg17
g13
sg18
g13
sg19
S'/System/Library/Fonts/SFNSTextItalic.ttf'
p273
sg21
g22
sbag7
(g8
g9
NtRp274
(dp275
g12
g13
sg14
S'DIN Alternate'
p276
sg16
I700
sg17
g13
sg18
g13
sg19
S'/Library/Fonts/DIN Alternate Bold.ttf'
p277
sg21
g22
sbag7
(g8
g9
NtRp278
(dp279
g12
g13
sg14
S'.SF Compact Display'
p280
sg16
I400
sg17
g13
sg18
g13
sg19
S'/System/Library/Fonts/SFCompactDisplay-Bold.otf'
p281
sg21
g22
sbag7
(g8
g9
NtRp282
(dp283
g12
g13
sg14
S'STIXSizeThreeSym'
p284
sg16
I700
sg17
g13
sg18
g13
sg19
S'/Library/Fonts/STIXSizThreeSymBol.otf'
p285
sg21
g22
sbag7
(g8
g9
NtRp286
(dp287
g12
g13
sg14
S'System Font'
p288
sg16
I400
sg17
g13
sg18
g13
sg19
S'/System/Library/Fonts/SFNSDisplay.ttf'
p289
sg21
g22
sbag7
(g8
g9
NtRp290
(dp291
g12
g13
sg14
S'Courier New'
p292
sg16
I400
sg17
g13
sg18
g13
sg19
S'/Library/Fonts/Courier New.ttf'
p293
sg21
g22
sbag7
(g8
g9
NtRp294
(dp295
g12
g74
sg14
S'Arial Narrow'
p296
sg16
I700
sg17
g200
sg18
g13
sg19
S'/Library/Fonts/Arial Narrow Bold Italic.ttf'
p297
sg21
g22
sbag7
(g8
g9
NtRp298
(dp299
g12
g13
sg14
S'Luminari'
p300
sg16
I400
sg17
g13
sg18
g13
sg19
S'/Library/Fonts/Luminari.ttf'
p301
sg21
g22
sbag7
(g8
g9
NtRp302
(dp303
g12
g13
sg14
S'Zapfino'
p304
sg16
I400
sg17
g13
sg18
g13
sg19
S'/Library/Fonts/Zapfino.ttf'
p305
sg21
g22
sbag7
(g8
g9
NtRp306
(dp307
g12
g13
sg14
S'Arial Narrow'
p308
sg16
I700
sg17
g200
sg18
g13
sg19
S'/Library/Fonts/Arial Narrow Bold.ttf'
p309
sg21
g22
sbag7
(g8
g9
NtRp310
(dp311
g12
g74
sg14
S'Times New Roman'
p312
sg16
I500
sg17
g13
sg18
g13
sg19
S'/Library/Fonts/Times New Roman Italic.ttf'
p313
sg21
g22
sbag7
(g8
g9
NtRp314
(dp315
g12
g13
sg14
S'.SF NS Text Condensed'
p316
sg16
I400
sg17
g13
sg18
g13
sg19
S'/System/Library/Fonts/SFNSTextCondensed-Medium.otf'
p317
sg21
g22
sbag7
(g8
g9
NtRp318
(dp319
g12
g13
sg14
S'Krungthep'
p320
sg16
I400
sg17
g13
sg18
g13
sg19
S'/Library/Fonts/Krungthep.ttf'
p321
sg21
g22
sbag7
(g8
g9
NtRp322
(dp323
g12
g13
sg14
S'.SF NS Display Condensed'
p324
sg16
I400
sg17
g13
sg18
g13
sg19
S'/System/Library/Fonts/SFNSDisplayCondensed-Light.otf'
p325
sg21
g22
sbag7
(g8
g9
NtRp326
(dp327
g12
g13
sg14
S'Apple Symbols'
p328
sg16
I400
sg17
g13
sg18
g13
sg19
S'/System/Library/Fonts/Apple Symbols.ttf'
p329
sg21
g22
sbag7
(g8
g9
NtRp330
(dp331
g12
g13
sg14
S'STIXSizeTwoSym'
p332
sg16
I700
sg17
g13
sg18
g13
sg19
S'/Library/Fonts/STIXSizTwoSymBol.otf'
p333
sg21
g22
sbag7
(g8
g9
NtRp334
(dp335
g12
g13
sg14
S'STIXIntegralsSm'
p336
sg16
I700
sg17
g13
sg18
g13
sg19
S'/Library/Fonts/STIXIntSmBol.otf'
p337
sg21
g22
sbag7
(g8
g9
NtRp338
(dp339
g12
g13
sg14
S'Diwan Thuluth'
p340
sg16
I400
sg17
g13
sg18
g13
sg19
S'/Library/Fonts/Diwan Thuluth.ttf'
p341
sg21
g22
sbag7
(g8
g9
NtRp342
(dp343
g12
g13
sg14
S'Trebuchet MS'
p344
sg16
I700
sg17
g13
sg18
g13
sg19
S'/Library/Fonts/Trebuchet MS Bold.ttf'
p345
sg21
g22
sbag7
(g8
g9
NtRp346
(dp347
g12
g13
sg14
S'.SF Compact Text'
p348
sg16
I400
sg17
g13
sg18
g13
sg19
S'/System/Library/Fonts/SFCompactText-HeavyItalic.otf'
p349
sg21
g22
sbag7
(g8
g9
NtRp350
(dp351
g12
g13
sg14
S'Bradley Hand'
p352
sg16
I700
sg17
g13
sg18
g13
sg19
S'/Library/Fonts/Bradley Hand Bold.ttf'
p353
sg21
g22
sbag7
(g8
g9
NtRp354
(dp355
g12
g13
sg14
S'.SF Compact Rounded'
p356
sg16
I400
sg17
g13
sg18
g13
sg19
S'/System/Library/Fonts/SFCompactRounded-Thin.otf'
p357
sg21
g22
sbag7
(g8
g9
NtRp358
(dp359
g12
g13
sg14
S'System Font'
p360
sg16
I400
sg17
g13
sg18
g13
sg19
S'/System/Library/Fonts/SFNSDisplay-SemiboldItalic.otf'
p361
sg21
g22
sbag7
(g8
g9
NtRp362
(dp363
g12
g74
sg14
S'Times New Roman'
p364
sg16
I700
sg17
g13
sg18
g13
sg19
S'/Library/Fonts/Times New Roman Bold Italic.ttf'
p365
sg21
g22
sbag7
(g8
g9
NtRp366
(dp367
g12
g13
sg14
S'System Font'
p368
sg16
I400
sg17
g13
sg18
g13
sg19
S'/System/Library/Fonts/SFNSDisplay-RegularItalic.otf'
p369
sg21
g22
sbag7
(g8
g9
NtRp370
(dp371
g12
g74
sg14
S'Arial Narrow'
p372
sg16
I400
sg17
g200
sg18
g13
sg19
S'/Library/Fonts/Arial Narrow Italic.ttf'
p373
sg21
g22
sbag7
(g8
g9
NtRp374
(dp375
g12
g13
sg14
S'.SF Compact Rounded'
p376
sg16
I400
sg17
g13
sg18
g13
sg19
S'/System/Library/Fonts/SFCompactRounded-Light.otf'
p377
sg21
g22
sbag7
(g8
g9
NtRp378
(dp379
g12
g13
sg14
S'.SF Compact Display'
p380
sg16
I400
sg17
g13
sg18
g13
sg19
S'/System/Library/Fonts/SFCompactDisplay-Regular.otf'
p381
sg21
g22
sbag7
(g8
g9
NtRp382
(dp383
g12
g13
sg14
S'.SF NS Display Condensed'
p384
sg16
I400
sg17
g13
sg18
g13
sg19
S'/System/Library/Fonts/SFNSDisplayCondensed-Ultralight.otf'
p385
sg21
g22
sbag7
(g8
g9
NtRp386
(dp387
g12
g13
sg14
S'System Font'
p388
sg16
I400
sg17
g13
sg18
g13
sg19
S'/System/Library/Fonts/SFNSDisplay-MediumItalic.otf'
p389
sg21
g22
sbag7
(g8
g9
NtRp390
(dp391
g12
g13
sg14
S'Apple Braille'
p392
sg16
I400
sg17
g13
sg18
g13
sg19
S'/System/Library/Fonts/Apple Braille Outline 8 Dot.ttf'
p393
sg21
g22
sbag7
(g8
g9
NtRp394
(dp395
g12
g13
sg14
S'.SF NS Text Condensed'
p396
sg16
I400
sg17
g13
sg18
g13
sg19
S'/System/Library/Fonts/SFNSTextCondensed-Heavy.otf'
p397
sg21
g22
sbag7
(g8
g9
NtRp398
(dp399
g12
g13
sg14
S'Plantagenet Cherokee'
p400
sg16
I400
sg17
g13
sg18
g13
sg19
S'/Library/Fonts/PlantagenetCherokee.ttf'
p401
sg21
g22
sbag7
(g8
g9
NtRp402
(dp403
g12
g13
sg14
S'Times New Roman'
p404
sg16
I700
sg17
g13
sg18
g13
sg19
S'/Library/Fonts/Times New Roman Bold.ttf'
p405
sg21
g22
sbag7
(g8
g9
NtRp406
(dp407
g12
g74
sg14
S'Arial'
p408
sg16
I700
sg17
g13
sg18
g13
sg19
S'/Library/Fonts/Arial Bold Italic.ttf'
p409
sg21
g22
sbag7
(g8
g9
NtRp410
(dp411
g12
g13
sg14
S'.SF NS Text Condensed'
p412
sg16
I400
sg17
g13
sg18
g13
sg19
S'/System/Library/Fonts/SFNSTextCondensed-Regular.otf'
p413
sg21
g22
sbag7
(g8
g9
NtRp414
(dp415
g12
g13
sg14
S'STIXVariants'
p416
sg16
I400
sg17
g13
sg18
g13
sg19
S'/Library/Fonts/STIXVar.otf'
p417
sg21
g22
sbag7
(g8
g9
NtRp418
(dp419
g12
g13
sg14
S'Mishafi'
p420
sg16
I400
sg17
g13
sg18
g13
sg19
S'/Library/Fonts/Mishafi.ttf'
p421
sg21
g22
sbag7
(g8
g9
NtRp422
(dp423
g12
g13
sg14
S'STIXVariants'
p424
sg16
I700
sg17
g13
sg18
g13
sg19
S'/Library/Fonts/STIXVarBol.otf'
p425
sg21
g22
sbag7
(g8
g9
NtRp426
(dp427
g12
g13
sg14
S'Georgia'
p428
sg16
I400
sg17
g13
sg18
g13
sg19
S'/Library/Fonts/Georgia.ttf'
p429
sg21
g22
sbag7
(g8
g9
NtRp430
(dp431
g12
g13
sg14
S'System Font'
p432
sg16
I400
sg17
g13
sg18
g13
sg19
S'/System/Library/Fonts/SFNSDisplay-BlackItalic.otf'
p433
sg21
g22
sbag7
(g8
g9
NtRp434
(dp435
g12
g13
sg14
S'.SF Compact Text'
p436
sg16
I400
sg17
g13
sg18
g13
sg19
S'/System/Library/Fonts/SFCompactText-Regular.otf'
p437
sg21
g22
sbag7
(g8
g9
NtRp438
(dp439
g12
g13
sg14
S'.SF Compact Text'
p440
sg16
I400
sg17
g13
sg18
g13
sg19
S'/System/Library/Fonts/SFCompactText-Semibold.otf'
p441
sg21
g22
sbag7
(g8
g9
NtRp442
(dp443
g12
g13
sg14
S'.LastResort'
p444
sg16
I400
sg17
g13
sg18
g13
sg19
S'/System/Library/Fonts/LastResort.otf'
p445
sg21
g22
sbag7
(g8
g9
NtRp446
(dp447
g12
g13
sg14
S'STIXIntegralsUp'
p448
sg16
I700
sg17
g13
sg18
g13
sg19
S'/Library/Fonts/STIXIntUpBol.otf'
p449
sg21
g22
sbag7
(g8
g9
NtRp450
(dp451
g12
g13
sg14
S'.SF Compact Text'
p452
sg16
I400
sg17
g13
sg18
g13
sg19
S'/System/Library/Fonts/SFCompactText-Bold.otf'
p453
sg21
g22
sbag7
(g8
g9
NtRp454
(dp455
g12
g13
sg14
S'Skia'
p456
sg16
I400
sg17
g13
sg18
g13
sg19
S'/Library/Fonts/Skia.ttf'
p457
sg21
g22
sbag7
(g8
g9
NtRp458
(dp459
g12
g13
sg14
S'STIXSizeFiveSym'
p460
sg16
I400
sg17
g13
sg18
g13
sg19
S'/Library/Fonts/STIXSizFiveSymReg.otf'
p461
sg21
g22
sbag7
(g8
g9
NtRp462
(dp463
g12
g13
sg14
S'Verdana'
p464
sg16
I400
sg17
g13
sg18
g13
sg19
S'/Library/Fonts/Verdana.ttf'
p465
sg21
g22
sbag7
(g8
g9
NtRp466
(dp467
g12
g13
sg14
S'Farisi'
p468
sg16
I400
sg17
g13
sg18
g13
sg19
S'/Library/Fonts/Farisi.ttf'
p469
sg21
g22
sbag7
(g8
g9
NtRp470
(dp471
g12
g13
sg14
S'System Font'
p472
sg16
I400
sg17
g13
sg18
g13
sg19
S'/System/Library/Fonts/SFNSText.ttf'
p473
sg21
g22
sbag7
(g8
g9
NtRp474
(dp475
g12
g13
sg14
S'.SF Compact Display'
p476
sg16
I400
sg17
g13
sg18
g13
sg19
S'/System/Library/Fonts/SFCompactDisplay-Light.otf'
p477
sg21
g22
sbag7
(g8
g9
NtRp478
(dp479
g12
g13
sg14
S'STIXNonUnicode'
p480
sg16
I400
sg17
g13
sg18
g13
sg19
S'/Library/Fonts/STIXNonUni.otf'
p481
sg21
g22
sbag7
(g8
g9
NtRp482
(dp483
g12
g13
sg14
S'Bodoni 72 Smallcaps'
p484
sg16
I400
sg17
g13
sg18
g13
sg19
S'/Library/Fonts/Bodoni 72 Smallcaps Book.ttf'
p485
sg21
g22
sbag7
(g8
g9
NtRp486
(dp487
g12
g74
sg14
S'Arial'
p488
sg16
I400
sg17
g13
sg18
g13
sg19
S'/Library/Fonts/Arial Italic.ttf'
p489
sg21
g22
sbag7
(g8
g9
NtRp490
(dp491
g12
g74
sg14
S'STIXNonUnicode'
p492
sg16
I700
sg17
g13
sg18
g13
sg19
S'/Library/Fonts/STIXNonUniBolIta.otf'
p493
sg21
g22
sbag7
(g8
g9
NtRp494
(dp495
g12
g13
sg14
S'Apple Braille'
p496
sg16
I400
sg17
g13
sg18
g13
sg19
S'/System/Library/Fonts/Apple Braille Pinpoint 8 Dot.ttf'
p497
sg21
g22
sbag7
(g8
g9
NtRp498
(dp499
g12
g74
sg14
S'Georgia'
p500
sg16
I400
sg17
g13
sg18
g13
sg19
S'/Library/Fonts/Georgia Italic.ttf'
p501
sg21
g22
sbag7
(g8
g9
NtRp502
(dp503
g12
g13
sg14
S'Apple Braille'
p504
sg16
I400
sg17
g13
sg18
g13
sg19
S'/System/Library/Fonts/Apple Braille Outline 6 Dot.ttf'
p505
sg21
g22
sbag7
(g8
g9
NtRp506
(dp507
g12
g74
sg14
S'Courier New'
p508
sg16
I700
sg17
g13
sg18
g13
sg19
S'/Library/Fonts/Courier New Bold Italic.ttf'
p509
sg21
g22
sbag7
(g8
g9
NtRp510
(dp511
g12
g13
sg14
S'Arial Rounded MT Bold'
p512
sg16
I700
sg17
g13
sg18
g13
sg19
S'/Library/Fonts/Arial Rounded Bold.ttf'
p513
sg21
g22
sbag7
(g8
g9
NtRp514
(dp515
g12
g13
sg14
S'.SF NS Display Condensed'
p516
sg16
I400
sg17
g13
sg18
g13
sg19
S'/System/Library/Fonts/SFNSDisplayCondensed-Thin.otf'
p517
sg21
g22
sbag7
(g8
g9
NtRp518
(dp519
g12
g13
sg14
S'.SF NS Display Condensed'
p520
sg16
I400
sg17
g13
sg18
g13
sg19
S'/System/Library/Fonts/SFNSDisplayCondensed-Heavy.otf'
p521
sg21
g22
sbag7
(g8
g9
NtRp522
(dp523
g12
g74
sg14
S'Verdana'
p524
sg16
I700
sg17
g13
sg18
g13
sg19
S'/Library/Fonts/Verdana Bold Italic.ttf'
p525
sg21
g22
sbag7
(g8
g9
NtRp526
(dp527
g12
g13
sg14
S'.SF Compact Display'
p528
sg16
I400
sg17
g13
sg18
g13
sg19
S'/System/Library/Fonts/SFCompactDisplay-Black.otf'
p529
sg21
g22
sbag7
(g8
g9
NtRp530
(dp531
g12
g13
sg14
S'.SF NS Display Condensed'
p532
sg16
I400
sg17
g13
sg18
g13
sg19
S'/System/Library/Fonts/SFNSDisplayCondensed-Black.otf'
p533
sg21
g22
sbag7
(g8
g9
NtRp534
(dp535
g12
g13
sg14
S'STIXIntegralsSm'
p536
sg16
I400
sg17
g13
sg18
g13
sg19
S'/Library/Fonts/STIXIntSmReg.otf'
p537
sg21
g22
sbag7
(g8
g9
NtRp538
(dp539
g12
g13
sg14
S'Kokonor'
p540
sg16
I400
sg17
g13
sg18
g13
sg19
S'/Library/Fonts/Kokonor.ttf'
p541
sg21
g22
sbag7
(g8
g9
NtRp542
(dp543
g12
g74
sg14
S'Verdana'
p544
sg16
I400
sg17
g13
sg18
g13
sg19
S'/Library/Fonts/Verdana Italic.ttf'
p545
sg21
g22
sbag7
(g8
g9
NtRp546
(dp547
g12
g13
sg14
S'STIXGeneral'
p548
sg16
I700
sg17
g13
sg18
g13
sg19
S'/Library/Fonts/STIXGeneralBol.otf'
p549
sg21
g22
sbag7
(g8
g9
NtRp550
(dp551
g12
g13
sg14
S'Apple Braille'
p552
sg16
I400
sg17
g13
sg18
g13
sg19
S'/System/Library/Fonts/Apple Braille.ttf'
p553
sg21
g22
sbag7
(g8
g9
NtRp554
(dp555
g12
g13
sg14
S'System Font'
p556
sg16
I400
sg17
g13
sg18
g13
sg19
S'/System/Library/Fonts/SFNSDisplay-LightItalic.otf'
p557
sg21
g22
sbag7
(g8
g9
NtRp558
(dp559
g12
g13
sg14
S'.SF Compact Text'
p560
sg16
I400
sg17
g13
sg18
g13
sg19
S'/System/Library/Fonts/SFCompactText-Heavy.otf'
p561
sg21
g22
sbag7
(g8
g9
NtRp562
(dp563
g12
g13
sg14
S'System Font'
p564
sg16
I400
sg17
g13
sg18
g13
sg19
S'/System/Library/Fonts/SFNSDisplay-HeavyItalic.otf'
p565
sg21
g22
sbag7
(g8
g9
NtRp566
(dp567
g12
g13
sg14
S'Chalkduster'
p568
sg16
I400
sg17
g13
sg18
g13
sg19
S'/Library/Fonts/Chalkduster.ttf'
p569
sg21
g22
sbag7
(g8
g9
NtRp570
(dp571
g12
g13
sg14
S'Gurmukhi MT'
p572
sg16
I400
sg17
g13
sg18
g13
sg19
S'/Library/Fonts/Gurmukhi.ttf'
p573
sg21
g22
sbag7
(g8
g9
NtRp574
(dp575
g12
g13
sg14
S'.SF Compact Rounded'
p576
sg16
I400
sg17
g13
sg18
g13
sg19
S'/System/Library/Fonts/SFCompactRounded-Black.otf'
p577
sg21
g22
sbag7
(g8
g9
NtRp578
(dp579
g12
g74
sg14
S'STIXNonUnicode'
p580
sg16
I400
sg17
g13
sg18
g13
sg19
S'/Library/Fonts/STIXNonUniIta.otf'
p581
sg21
g22
sbag7
(g8
g9
NtRp582
(dp583
g12
g13
sg14
S'STIXIntegralsUp'
p584
sg16
I400
sg17
g13
sg18
g13
sg19
S'/Library/Fonts/STIXIntUpReg.otf'
p585
sg21
g22
sbag7
(g8
g9
NtRp586
(dp587
g12
g74
sg14
S'STIXGeneral'
p588
sg16
I700
sg17
g13
sg18
g13
sg19
S'/Library/Fonts/STIXGeneralBolIta.otf'
p589
sg21
g22
sbag7
(g8
g9
NtRp590
(dp591
g12
g13
sg14
S'Trebuchet MS'
p592
sg16
I400
sg17
g13
sg18
g13
sg19
S'/Library/Fonts/Trebuchet MS.ttf'
p593
sg21
g22
sbag7
(g8
g9
NtRp594
(dp595
g12
g13
sg14
S'.SF Compact Text'
p596
sg16
I400
sg17
g13
sg18
g13
sg19
S'/System/Library/Fonts/SFCompactText-MediumItalic.otf'
p597
sg21
g22
sbag7
(g8
g9
NtRp598
(dp599
g12
g13
sg14
S'Courier New'
p600
sg16
I700
sg17
g13
sg18
g13
sg19
S'/Library/Fonts/Courier New Bold.ttf'
p601
sg21
g22
sbag7
(g8
g9
NtRp602
(dp603
g12
g13
sg14
S'Big Caslon'
p604
sg16
I500
sg17
g13
sg18
g13
sg19
S'/Library/Fonts/BigCaslon.ttf'
p605
sg21
g22
sbag7
(g8
g9
NtRp606
(dp607
g12
g13
sg14
S'.SF NS Text Condensed'
p608
sg16
I400
sg17
g13
sg18
g13
sg19
S'/System/Library/Fonts/SFNSTextCondensed-Semibold.otf'
p609
sg21
g22
sbag7
(g8
g9
NtRp610
(dp611
g12
g13
sg14
S'Ayuthaya'
p612
sg16
I400
sg17
g13
sg18
g13
sg19
S'/Library/Fonts/Ayuthaya.ttf'
p613
sg21
g22
sbag7
(g8
g9
NtRp614
(dp615
g12
g13
sg14
S'.SF Compact Text'
p616
sg16
I400
sg17
g13
sg18
g13
sg19
S'/System/Library/Fonts/SFCompactText-SemiboldItalic.otf'
p617
sg21
g22
sbag7
(g8
g9
NtRp618
(dp619
g12
g13
sg14
S'.SF Compact Rounded'
p620
sg16
I400
sg17
g13
sg18
g13
sg19
S'/System/Library/Fonts/SFCompactRounded-Bold.otf'
p621
sg21
g22
sbag7
(g8
g9
NtRp622
(dp623
g12
g13
sg14
S'STIXNonUnicode'
p624
sg16
I700
sg17
g13
sg18
g13
sg19
S'/Library/Fonts/STIXNonUniBol.otf'
p625
sg21
g22
sbag7
(g8
g9
NtRp626
(dp627
g12
g13
sg14
S'Webdings'
p628
sg16
I400
sg17
g13
sg18
g13
sg19
S'/Library/Fonts/Webdings.ttf'
p629
sg21
g22
sbag7
(g8
g9
NtRp630
(dp631
g12
g13
sg14
S'Apple Braille'
p632
sg16
I400
sg17
g13
sg18
g13
sg19
S'/System/Library/Fonts/Apple Braille Pinpoint 6 Dot.ttf'
p633
sg21
g22
sbag7
(g8
g9
NtRp634
(dp635
g12
g13
sg14
S'.SF Compact Text'
p636
sg16
I400
sg17
g13
sg18
g13
sg19
S'/System/Library/Fonts/SFCompactText-RegularItalic.otf'
p637
sg21
g22
sbag7
(g8
g9
NtRp638
(dp639
g12
g13
sg14
S'Symbol'
p640
sg16
I400
sg17
g13
sg18
g13
sg19
S'/System/Library/Fonts/Symbol.ttf'
p641
sg21
g22
sbag7
(g8
g9
NtRp642
(dp643
g12
g74
sg14
S'Trebuchet MS'
p644
sg16
I700
sg17
g13
sg18
g13
sg19
S'/Library/Fonts/Trebuchet MS Bold Italic.ttf'
p645
sg21
g22
sbag7
(g8
g9
NtRp646
(dp647
g12
g13
sg14
S'System Font'
p648
sg16
I400
sg17
g13
sg18
g13
sg19
S'/System/Library/Fonts/SFNSDisplay-UltralightItalic.otf'
p649
sg21
g22
sbag7
(g8
g9
NtRp650
(dp651
g12
g13
sg14
S'Wingdings 2'
p652
sg16
I400
sg17
g13
sg18
g13
sg19
S'/Library/Fonts/Wingdings 2.ttf'
p653
sg21
g22
sbag7
(g8
g9
NtRp654
(dp655
g12
g13
sg14
S'Tahoma'
p656
sg16
I400
sg17
g13
sg18
g13
sg19
S'/Library/Fonts/Tahoma.ttf'
p657
sg21
g22
sbag7
(g8
g9
NtRp658
(dp659
g12
g74
sg14
S'Brush Script MT'
p660
sg16
I400
sg17
g13
sg18
g13
sg19
S'/Library/Fonts/Brush Script.ttf'
p661
sg21
g22
sbag7
(g8
g9
NtRp662
(dp663
g12
g13
sg14
S'.Keyboard'
p664
sg16
I400
sg17
g13
sg18
g13
sg19
S'/System/Library/Fonts/Keyboard.ttf'
p665
sg21
g22
sbag7
(g8
g9
NtRp666
(dp667
g12
g13
sg14
S'.SF Compact Text'
p668
sg16
I400
sg17
g13
sg18
g13
sg19
S'/System/Library/Fonts/SFCompactText-Medium.otf'
p669
sg21
g22
sbag7
(g8
g9
NtRp670
(dp671
g12
g13
sg14
S'STIXSizeOneSym'
p672
sg16
I400
sg17
g13
sg18
g13
sg19
S'/Library/Fonts/STIXSizOneSymReg.otf'
p673
sg21
g22
sbag7
(g8
g9
NtRp674
(dp675
g12
g13
sg14
S'STIXIntegralsUpSm'
p676
sg16
I400
sg17
g13
sg18
g13
sg19
S'/Library/Fonts/STIXIntUpSmReg.otf'
p677
sg21
g22
sbag7
(g8
g9
NtRp678
(dp679
g12
g13
sg14
S'Andale Mono'
p680
sg16
I400
sg17
g13
sg18
g13
sg19
S'/Library/Fonts/Andale Mono.ttf'
p681
sg21
g22
sbag7
(g8
g9
NtRp682
(dp683
g12
g13
sg14
S'Khmer Sangam MN'
p684
sg16
I400
sg17
g13
sg18
g13
sg19
S'/Library/Fonts/Khmer Sangam MN.ttf'
p685
sg21
g22
sbag7
(g8
g9
NtRp686
(dp687
g12
g13
sg14
S'Microsoft Sans Serif'
p688
sg16
I400
sg17
g13
sg18
g13
sg19
S'/Library/Fonts/Microsoft Sans Serif.ttf'
p689
sg21
g22
sbag7
(g8
g9
NtRp690
(dp691
g12
g13
sg14
S'STIXIntegralsUpD'
p692
sg16
I700
sg17
g13
sg18
g13
sg19
S'/Library/Fonts/STIXIntUpDBol.otf'
p693
sg21
g22
sbag7
(g8
g9
NtRp694
(dp695
g12
g13
sg14
S'.SF Compact Text'
p696
sg16
I400
sg17
g13
sg18
g13
sg19
S'/System/Library/Fonts/SFCompactText-Light.otf'
p697
sg21
g22
sbag7
(g8
g9
NtRp698
(dp699
g12
g13
sg14
S'STIXGeneral'
p700
sg16
I400
sg17
g13
sg18
g13
sg19
S'/Library/Fonts/STIXGeneral.otf'
p701
sg21
g22
sbag7
(g8
g9
NtRp702
(dp703
g12
g74
sg14
S'Courier New'
p704
sg16
I400
sg17
g13
sg18
g13
sg19
S'/Library/Fonts/Courier New Italic.ttf'
p705
sg21
g22
sbag7
(g8
g9
NtRp706
(dp707
g12
g13
sg14
S'Arial Black'
p708
sg16
I900
sg17
g13
sg18
g13
sg19
S'/Library/Fonts/Arial Black.ttf'
p709
sg21
g22
sbag7
(g8
g9
NtRp710
(dp711
g12
g13
sg14
S'.SF Compact Display'
p712
sg16
I400
sg17
g13
sg18
g13
sg19
S'/System/Library/Fonts/SFCompactDisplay-Ultralight.otf'
p713
sg21
g22
sbag7
(g8
g9
NtRp714
(dp715
g12
g13
sg14
S'.SF Compact Display'
p716
sg16
I400
sg17
g13
sg18
g13
sg19
S'/System/Library/Fonts/SFCompactDisplay-Thin.otf'
p717
sg21
g22
sbag7
(g8
g9
NtRp718
(dp719
g12
g74
sg14
S'STIXGeneral'
p720
sg16
I400
sg17
g13
sg18
g13
sg19
S'/Library/Fonts/STIXGeneralItalic.otf'
p721
sg21
g22
sbag7
(g8
g9
NtRp722
(dp723
g12
g13
sg14
S'Silom'
p724
sg16
I400
sg17
g13
sg18
g13
sg19
S'/Library/Fonts/Silom.ttf'
p725
sg21
g22
sbag7
(g8
g9
NtRp726
(dp727
g12
g13
sg14
S'.SF NS Display Condensed'
p728
sg16
I400
sg17
g13
sg18
g13
sg19
S'/System/Library/Fonts/SFNSDisplayCondensed-Medium.otf'
p729
sg21
g22
sbag7
(g8
g9
NtRp730
(dp731
g12
g13
sg14
S'.SF NS Text Condensed'
p732
sg16
I400
sg17
g13
sg18
g13
sg19
S'/System/Library/Fonts/SFNSTextCondensed-Light.otf'
p733
sg21
g22
sbag7
(g8
g9
NtRp734
(dp735
g12
g13
sg14
S'STIXSizeFourSym'
p736
sg16
I400
sg17
g13
sg18
g13
sg19
S'/Library/Fonts/STIXSizFourSymReg.otf'
p737
sg21
g22
sbag7
(g8
g9
NtRp738
(dp739
g12
g13
sg14
S'Apple Chancery'
p740
sg16
I400
sg17
g13
sg18
g13
sg19
S'/Library/Fonts/Apple Chancery.ttf'
p741
sg21
g22
sbag7
(g8
g9
NtRp742
(dp743
g12
g13
sg14
S'.SF Compact Text'
p744
sg16
I400
sg17
g13
sg18
g13
sg19
S'/System/Library/Fonts/SFCompactText-LightItalic.otf'
p745
sg21
g22
sbag7
(g8
g9
NtRp746
(dp747
g12
g13
sg14
S'TeamViewer12'
p748
sg16
I400
sg17
g13
sg18
g13
sg19
S'/Library/Fonts/TeamViewer12.otf'
p749
sg21
g22
sbag7
(g8
g9
NtRp750
(dp751
g12
g13
sg14
S'Wingdings 3'
p752
sg16
I400
sg17
g13
sg18
g13
sg19
S'/Library/Fonts/Wingdings 3.ttf'
p753
sg21
g22
sbag7
(g8
g9
NtRp754
(dp755
g12
g13
sg14
S'Comic Sans MS'
p756
sg16
I700
sg17
g13
sg18
g13
sg19
S'/Library/Fonts/Comic Sans MS Bold.ttf'
p757
sg21
g22
sbag7
(g8
g9
NtRp758
(dp759
g12
g13
sg14
S'.SF Compact Display'
p760
sg16
I400
sg17
g13
sg18
g13
sg19
S'/System/Library/Fonts/SFCompactDisplay-Heavy.otf'
p761
sg21
g22
sbag7
(g8
g9
NtRp762
(dp763
g12
g13
sg14
S'STIXIntegralsUpSm'
p764
sg16
I700
sg17
g13
sg18
g13
sg19
S'/Library/Fonts/STIXIntUpSmBol.otf'
p765
sg21
g22
sbag7
(g8
g9
NtRp766
(dp767
g12
g13
sg14
S'Lao Sangam MN'
p768
sg16
I400
sg17
g13
sg18
g13
sg19
S'/Library/Fonts/Lao Sangam MN.ttf'
p769
sg21
g22
sbag7
(g8
g9
NtRp770
(dp771
g12
g13
sg14
S'Trattatello'
p772
sg16
I400
sg17
g13
sg18
g13
sg19
S'/Library/Fonts/Trattatello.ttf'
p773
sg21
g22
sbag7
(g8
g9
NtRp774
(dp775
g12
g13
sg14
S'STIXSizeOneSym'
p776
sg16
I700
sg17
g13
sg18
g13
sg19
S'/Library/Fonts/STIXSizOneSymBol.otf'
p777
sg21
g22
sbag7
(g8
g9
NtRp778
(dp779
g12
g13
sg14
S'Comic Sans MS'
p780
sg16
I400
sg17
g13
sg18
g13
sg19
S'/Library/Fonts/Comic Sans MS.ttf'
p781
sg21
g22
sbag7
(g8
g9
NtRp782
(dp783
g12
g13
sg14
S'STIXSizeTwoSym'
p784
sg16
I400
sg17
g13
sg18
g13
sg19
S'/Library/Fonts/STIXSizTwoSymReg.otf'
p785
sg21
g22
sbag7
(g8
g9
NtRp786
(dp787
g12
g13
sg14
S'Bodoni Ornaments'
p788
sg16
I400
sg17
g13
sg18
g13
sg19
S'/Library/Fonts/Bodoni Ornaments.ttf'
p789
sg21
g22
sbag7
(g8
g9
NtRp790
(dp791
g12
g13
sg14
S'STIXSizeFourSym'
p792
sg16
I700
sg17
g13
sg18
g13
sg19
S'/Library/Fonts/STIXSizFourSymBol.otf'
p793
sg21
g22
sbag7
(g8
g9
NtRp794
(dp795
g12
g13
sg14
S'Arial'
p796
sg16
I700
sg17
g13
sg18
g13
sg19
S'/Library/Fonts/Arial Bold.ttf'
p797
sg21
g22
sbag7
(g8
g9
NtRp798
(dp799
g12
g13
sg14
S'Georgia'
p800
sg16
I700
sg17
g13
sg18
g13
sg19
S'/Library/Fonts/Georgia Bold.ttf'
p801
sg21
g22
sbag7
(g8
g9
NtRp802
(dp803
g12
g13
sg14
S'STIXIntegralsD'
p804
sg16
I400
sg17
g13
sg18
g13
sg19
S'/Library/Fonts/STIXIntDReg.otf'
p805
sg21
g22
sbag7
(g8
g9
NtRp806
(dp807
g12
g13
sg14
S'System Font'
p808
sg16
I400
sg17
g13
sg18
g13
sg19
S'/System/Library/Fonts/SFNSSymbols-Regular.otf'
p809
sg21
g22
sbag7
(g8
g9
NtRp810
(dp811
g12
g13
sg14
S'Wingdings'
p812
sg16
I400
sg17
g13
sg18
g13
sg19
S'/Library/Fonts/Wingdings.ttf'
p813
sg21
g22
sbag7
(g8
g9
NtRp814
(dp815
g12
g13
sg14
S'Impact'
p816
sg16
I400
sg17
g13
sg18
g13
sg19
S'/Library/Fonts/Impact.ttf'
p817
sg21
g22
sbag7
(g8
g9
NtRp818
(dp819
g12
g13
sg14
S'Tahoma'
p820
sg16
I700
sg17
g13
sg18
g13
sg19
S'/Library/Fonts/Tahoma Bold.ttf'
p821
sg21
g22
sbag7
(g8
g9
NtRp822
(dp823
g12
g74
sg14
S'Georgia'
p824
sg16
I700
sg17
g13
sg18
g13
sg19
S'/Library/Fonts/Georgia Bold Italic.ttf'
p825
sg21
g22
sbag7
(g8
g9
NtRp826
(dp827
g12
g13
sg14
S'STIXIntegralsUpD'
p828
sg16
I400
sg17
g13
sg18
g13
sg19
S'/Library/Fonts/STIXIntUpDReg.otf'
p829
sg21
g22
sbag7
(g8
g9
NtRp830
(dp831
g12
g13
sg14
S'Sathu'
p832
sg16
I400
sg17
g13
sg18
g13
sg19
S'/Library/Fonts/Sathu.ttf'
p833
sg21
g22
sbag7
(g8
g9
NtRp834
(dp835
g12
g13
sg14
S'.SF Compact Rounded'
p836
sg16
I400
sg17
g13
sg18
g13
sg19
S'/System/Library/Fonts/SFCompactRounded-Regular.otf'
p837
sg21
g22
sbag7
(g8
g9
NtRp838
(dp839
g12
g13
sg14
S'System Font'
p840
sg16
I400
sg17
g13
sg18
g13
sg19
S'/System/Library/Fonts/SFNSDisplay-ThinItalic.otf'
p841
sg21
g22
sbasS'defaultFamily'
p842
(dp843
S'afm'
p844
S'Helvetica'
p845
sS'ttf'
p846
S'Bitstream Vera Sans'
p847
ssS'ttffiles'
p848
(lp849
S'/System/Library/Frameworks/Python.framework/Versions/2.7/Extras/lib/python/matplotlib/mpl-data/fonts/ttf/cmex10.ttf'
p850
aS'/System/Library/Frameworks/Python.framework/Versions/2.7/Extras/lib/python/matplotlib/mpl-data/fonts/ttf/VeraBI.ttf'
p851
aS'/System/Library/Frameworks/Python.framework/Versions/2.7/Extras/lib/python/matplotlib/mpl-data/fonts/ttf/STIXNonUni.ttf'
p852
aS'/System/Library/Frameworks/Python.framework/Versions/2.7/Extras/lib/python/matplotlib/mpl-data/fonts/ttf/STIXNonUniBol.ttf'
p853
aS'/System/Library/Frameworks/Python.framework/Versions/2.7/Extras/lib/python/matplotlib/mpl-data/fonts/ttf/VeraMoBd.ttf'
p854
aS'/System/Library/Frameworks/Python.framework/Versions/2.7/Extras/lib/python/matplotlib/mpl-data/fonts/ttf/cmr10.ttf'
p855
aS'/System/Library/Frameworks/Python.framework/Versions/2.7/Extras/lib/python/matplotlib/mpl-data/fonts/ttf/STIXGeneral.ttf'
p856
aS'/System/Library/Frameworks/Python.framework/Versions/2.7/Extras/lib/python/matplotlib/mpl-data/fonts/ttf/VeraMoIt.ttf'
p857
aS'/System/Library/Frameworks/Python.framework/Versions/2.7/Extras/lib/python/matplotlib/mpl-data/fonts/ttf/VeraSe.ttf'
p858
aS'/System/Library/Frameworks/Python.framework/Versions/2.7/Extras/lib/python/matplotlib/mpl-data/fonts/ttf/STIXSizFiveSymReg.ttf'
p859
aS'/System/Library/Frameworks/Python.framework/Versions/2.7/Extras/lib/python/matplotlib/mpl-data/fonts/ttf/VeraMono.ttf'
p860
aS'/System/Library/Frameworks/Python.framework/Versions/2.7/Extras/lib/python/matplotlib/mpl-data/fonts/ttf/VeraMoBI.ttf'
p861
aS'/System/Library/Frameworks/Python.framework/Versions/2.7/Extras/lib/python/matplotlib/mpl-data/fonts/ttf/STIXGeneralBol.ttf'
p862
aS'/System/Library/Frameworks/Python.framework/Versions/2.7/Extras/lib/python/matplotlib/mpl-data/fonts/ttf/STIXGeneralItalic.ttf'
p863
aS'/System/Library/Frameworks/Python.framework/Versions/2.7/Extras/lib/python/matplotlib/mpl-data/fonts/ttf/STIXSizFourSymReg.ttf'
p864
aS'/System/Library/Frameworks/Python.framework/Versions/2.7/Extras/lib/python/matplotlib/mpl-data/fonts/ttf/STIXSizThreeSymBol.ttf'
p865
aS'/System/Library/Frameworks/Python.framework/Versions/2.7/Extras/lib/python/matplotlib/mpl-data/fonts/ttf/STIXSizOneSymBol.ttf'
p866
aS'/System/Library/Frameworks/Python.framework/Versions/2.7/Extras/lib/python/matplotlib/mpl-data/fonts/ttf/STIXSizFourSymBol.ttf'
p867
aS'/System/Library/Frameworks/Python.framework/Versions/2.7/Extras/lib/python/matplotlib/mpl-data/fonts/ttf/VeraBd.ttf'
p868
aS'/System/Library/Frameworks/Python.framework/Versions/2.7/Extras/lib/python/matplotlib/mpl-data/fonts/ttf/cmsy10.ttf'
p869
aS'/System/Library/Frameworks/Python.framework/Versions/2.7/Extras/lib/python/matplotlib/mpl-data/fonts/ttf/STIXSizTwoSymReg.ttf'
p870
aS'/System/Library/Frameworks/Python.framework/Versions/2.7/Extras/lib/python/matplotlib/mpl-data/fonts/ttf/STIXNonUniBolIta.ttf'
p871
aS'/System/Library/Frameworks/Python.framework/Versions/2.7/Extras/lib/python/matplotlib/mpl-data/fonts/ttf/cmb10.ttf'
p872
aS'/System/Library/Frameworks/Python.framework/Versions/2.7/Extras/lib/python/matplotlib/mpl-data/fonts/ttf/cmmi10.ttf'
p873
aS'/System/Library/Frameworks/Python.framework/Versions/2.7/Extras/lib/python/matplotlib/mpl-data/fonts/ttf/VeraIt.ttf'
p874
aS'/System/Library/Frameworks/Python.framework/Versions/2.7/Extras/lib/python/matplotlib/mpl-data/fonts/ttf/STIXSizOneSymReg.ttf'
p875
aS'/System/Library/Frameworks/Python.framework/Versions/2.7/Extras/lib/python/matplotlib/mpl-data/fonts/ttf/Vera.ttf'
p876
aS'/System/Library/Frameworks/Python.framework/Versions/2.7/Extras/lib/python/matplotlib/mpl-data/fonts/ttf/cmss10.ttf'
p877
aS'/System/Library/Frameworks/Python.framework/Versions/2.7/Extras/lib/python/matplotlib/mpl-data/fonts/ttf/VeraSeBd.ttf'
p878
aS'/System/Library/Frameworks/Python.framework/Versions/2.7/Extras/lib/python/matplotlib/mpl-data/fonts/ttf/STIXSizTwoSymBol.ttf'
p879
aS'/System/Library/Frameworks/Python.framework/Versions/2.7/Extras/lib/python/matplotlib/mpl-data/fonts/ttf/STIXNonUniIta.ttf'
p880
aS'/System/Library/Frameworks/Python.framework/Versions/2.7/Extras/lib/python/matplotlib/mpl-data/fonts/ttf/cmtt10.ttf'
p881
aS'/System/Library/Frameworks/Python.framework/Versions/2.7/Extras/lib/python/matplotlib/mpl-data/fonts/ttf/STIXGeneralBolIta.ttf'
p882
aS'/System/Library/Frameworks/Python.framework/Versions/2.7/Extras/lib/python/matplotlib/mpl-data/fonts/ttf/STIXSizThreeSymReg.ttf'
p883
aS'/System/Library/Fonts/SFNSDisplayCondensed-Regular.otf'
p884
aS'/Library/Fonts/Trebuchet MS Italic.ttf'
p885
aS'/Library/Fonts/Hoefler Text Ornaments.ttf'
p886
aS'/System/Library/Fonts/SFCompactRounded-Heavy.otf'
p887
aS'/Library/Fonts/Times New Roman.ttf'
p888
aS'/System/Library/Fonts/SFCompactDisplay-Medium.otf'
p889
aS'/Library/Fonts/Verdana Bold.ttf'
p890
aS'/System/Library/Fonts/SFCompactRounded-Medium.otf'
p891
aS'/Library/Fonts/Arial Unicode.ttf'
p892
aS'/Library/Fonts/STIXSizThreeSymReg.otf'
p893
aS'/Library/Fonts/DIN Condensed Bold.ttf'
p894
aS'/Library/Fonts/TeamViewer13.otf'
p895
aS'/System/Library/Fonts/SFNSDisplay-BoldItalic.otf'
p896
aS'/Library/Fonts/Herculanum.ttf'
p897
aS'/Library/Fonts/Arial.ttf'
p898
aS'/System/Library/Fonts/SFCompactDisplay-Semibold.otf'
p899
aS'/Library/Fonts/AppleGothic.ttf'
p900
aS'/System/Library/Fonts/SFNSTextCondensed-Bold.otf'
p901
aS'/Library/Fonts/Arial Narrow.ttf'
p902
aS'/System/Library/Fonts/SFNSDisplayCondensed-Bold.otf'
p903
aS'/Library/Fonts/NISC18030.ttf'
p904
aS'/System/Library/Fonts/SFCompactRounded-Ultralight.otf'
p905
aS'/System/Library/Fonts/SFNSDisplayCondensed-Semibold.otf'
p906
aS'/Library/Fonts/AppleMyungjo.ttf'
p907
aS'/Library/Fonts/Mishafi Gold.ttf'
p908
aS'/System/Library/Fonts/ZapfDingbats.ttf'
p909
aS'/System/Library/Fonts/SFCompactRounded-Semibold.otf'
p910
aS'/System/Library/Fonts/SFCompactText-BoldItalic.otf'
p911
aS'/Library/Fonts/STIXIntDBol.otf'
p912
aS'/System/Library/Fonts/SFNSTextItalic.ttf'
p913
aS'/Library/Fonts/DIN Alternate Bold.ttf'
p914
aS'/System/Library/Fonts/SFCompactDisplay-Bold.otf'
p915
aS'/Library/Fonts/STIXSizThreeSymBol.otf'
p916
aS'/System/Library/Fonts/SFNSDisplay.ttf'
p917
aS'/Library/Fonts/Courier New.ttf'
p918
aS'/Library/Fonts/Arial Narrow Bold Italic.ttf'
p919
aS'/Library/Fonts/Luminari.ttf'
p920
aS'/Library/Fonts/Zapfino.ttf'
p921
aS'/Library/Fonts/Arial Narrow Bold.ttf'
p922
aS'/Library/Fonts/Times New Roman Italic.ttf'
p923
aS'/System/Library/Fonts/SFNSTextCondensed-Medium.otf'
p924
aS'/Library/Fonts/Krungthep.ttf'
p925
aS'/System/Library/Fonts/SFNSDisplayCondensed-Light.otf'
p926
aS'/System/Library/Fonts/Apple Symbols.ttf'
p927
aS'/Library/Fonts/STIXSizTwoSymBol.otf'
p928
aS'/Library/Fonts/STIXIntSmBol.otf'
p929
aS'/Library/Fonts/Diwan Thuluth.ttf'
p930
aS'/Library/Fonts/Trebuchet MS Bold.ttf'
p931
aS'/System/Library/Fonts/SFCompactText-HeavyItalic.otf'
p932
aS'/Library/Fonts/Bradley Hand Bold.ttf'
p933
aS'/System/Library/Fonts/SFCompactRounded-Thin.otf'
p934
aS'/System/Library/Fonts/SFNSDisplay-SemiboldItalic.otf'
p935
aS'/Library/Fonts/Times New Roman Bold Italic.ttf'
p936
aS'/System/Library/Fonts/SFNSDisplay-RegularItalic.otf'
p937
aS'/Library/Fonts/Arial Narrow Italic.ttf'
p938
aS'/System/Library/Fonts/SFCompactRounded-Light.otf'
p939
aS'/System/Library/Fonts/SFCompactDisplay-Regular.otf'
p940
aS'/System/Library/Fonts/SFNSDisplayCondensed-Ultralight.otf'
p941
aS'/System/Library/Fonts/SFNSDisplay-MediumItalic.otf'
p942
aS'/System/Library/Fonts/Apple Braille Outline 8 Dot.ttf'
p943
aS'/System/Library/Fonts/SFNSTextCondensed-Heavy.otf'
p944
aS'/Library/Fonts/PlantagenetCherokee.ttf'
p945
aS'/Library/Fonts/Times New Roman Bold.ttf'
p946
aS'/Library/Fonts/Arial Bold Italic.ttf'
p947
aS'/System/Library/Fonts/SFNSTextCondensed-Regular.otf'
p948
aS'/Library/Fonts/STIXVar.otf'
p949
aS'/Library/Fonts/Mishafi.ttf'
p950
aS'/Library/Fonts/STIXVarBol.otf'
p951
aS'/Library/Fonts/Georgia.ttf'
p952
aS'/System/Library/Fonts/SFNSDisplay-BlackItalic.otf'
p953
aS'/System/Library/Fonts/SFCompactText-Regular.otf'
p954
aS'/System/Library/Fonts/SFCompactText-Semibold.otf'
p955
aS'/System/Library/Fonts/LastResort.otf'
p956
aS'/Library/Fonts/STIXIntUpBol.otf'
p957
aS'/System/Library/Fonts/SFCompactText-Bold.otf'
p958
aS'/Library/Fonts/Skia.ttf'
p959
aS'/Library/Fonts/STIXSizFiveSymReg.otf'
p960
aS'/Library/Fonts/Verdana.ttf'
p961
aS'/Library/Fonts/Farisi.ttf'
p962
aS'/System/Library/Fonts/SFNSText.ttf'
p963
aS'/System/Library/Fonts/SFCompactDisplay-Light.otf'
p964
aS'/Library/Fonts/STIXNonUni.otf'
p965
aS'/Library/Fonts/Bodoni 72 Smallcaps Book.ttf'
p966
aS'/Library/Fonts/Arial Italic.ttf'
p967
aS'/Library/Fonts/STIXNonUniBolIta.otf'
p968
aS'/System/Library/Fonts/Apple Braille Pinpoint 8 Dot.ttf'
p969
aS'/Library/Fonts/Georgia Italic.ttf'
p970
aS'/System/Library/Fonts/Apple Braille Outline 6 Dot.ttf'
p971
aS'/Library/Fonts/Courier New Bold Italic.ttf'
p972
aS'/Library/Fonts/Arial Rounded Bold.ttf'
p973
aS'/System/Library/Fonts/SFNSDisplayCondensed-Thin.otf'
p974
aS'/System/Library/Fonts/SFNSDisplayCondensed-Heavy.otf'
p975
aS'/Library/Fonts/Verdana Bold Italic.ttf'
p976
aS'/System/Library/Fonts/SFCompactDisplay-Black.otf'
p977
aS'/System/Library/Fonts/SFNSDisplayCondensed-Black.otf'
p978
aS'/Library/Fonts/STIXIntSmReg.otf'
p979
aS'/Library/Fonts/Kokonor.ttf'
p980
aS'/Library/Fonts/Verdana Italic.ttf'
p981
aS'/Library/Fonts/STIXGeneralBol.otf'
p982
aS'/System/Library/Fonts/Apple Braille.ttf'
p983
aS'/System/Library/Fonts/SFNSDisplay-LightItalic.otf'
p984
aS'/System/Library/Fonts/SFCompactText-Heavy.otf'
p985
aS'/System/Library/Fonts/SFNSDisplay-HeavyItalic.otf'
p986
aS'/Library/Fonts/Chalkduster.ttf'
p987
aS'/Library/Fonts/Gurmukhi.ttf'
p988
aS'/System/Library/Fonts/SFCompactRounded-Black.otf'
p989
aS'/Library/Fonts/STIXNonUniIta.otf'
p990
aS'/Library/Fonts/STIXIntUpReg.otf'
p991
aS'/Library/Fonts/STIXGeneralBolIta.otf'
p992
aS'/Library/Fonts/Trebuchet MS.ttf'
p993
aS'/System/Library/Fonts/SFCompactText-MediumItalic.otf'
p994
aS'/Library/Fonts/Courier New Bold.ttf'
p995
aS'/Library/Fonts/BigCaslon.ttf'
p996
aS'/System/Library/Fonts/SFNSTextCondensed-Semibold.otf'
p997
aS'/Library/Fonts/Ayuthaya.ttf'
p998
aS'/System/Library/Fonts/SFCompactText-SemiboldItalic.otf'
p999
aS'/System/Library/Fonts/SFCompactRounded-Bold.otf'
p1000
aS'/Library/Fonts/STIXNonUniBol.otf'
p1001
aS'/Library/Fonts/Webdings.ttf'
p1002
aS'/System/Library/Fonts/Apple Braille Pinpoint 6 Dot.ttf'
p1003
aS'/System/Library/Fonts/SFCompactText-RegularItalic.otf'
p1004
aS'/System/Library/Fonts/Symbol.ttf'
p1005
aS'/Library/Fonts/Trebuchet MS Bold Italic.ttf'
p1006
aS'/System/Library/Fonts/SFNSDisplay-UltralightItalic.otf'
p1007
aS'/Library/Fonts/Wingdings 2.ttf'
p1008
aS'/Library/Fonts/Tahoma.ttf'
p1009
aS'/Library/Fonts/Brush Script.ttf'
p1010
aS'/System/Library/Fonts/Keyboard.ttf'
p1011
aS'/System/Library/Fonts/SFCompactText-Medium.otf'
p1012
aS'/Library/Fonts/STIXSizOneSymReg.otf'
p1013
aS'/Library/Fonts/STIXIntUpSmReg.otf'
p1014
aS'/Library/Fonts/Andale Mono.ttf'
p1015
aS'/Library/Fonts/Khmer Sangam MN.ttf'
p1016
aS'/Library/Fonts/Microsoft Sans Serif.ttf'
p1017
aS'/Library/Fonts/STIXIntUpDBol.otf'
p1018
aS'/System/Library/Fonts/SFCompactText-Light.otf'
p1019
aS'/Library/Fonts/STIXGeneral.otf'
p1020
aS'/Library/Fonts/Courier New Italic.ttf'
p1021
aS'/Library/Fonts/Arial Black.ttf'
p1022
aS'/System/Library/Fonts/SFCompactDisplay-Ultralight.otf'
p1023
aS'/System/Library/Fonts/SFCompactDisplay-Thin.otf'
p1024
aS'/Library/Fonts/STIXGeneralItalic.otf'
p1025
aS'/Library/Fonts/Silom.ttf'
p1026
aS'/System/Library/Fonts/SFNSDisplayCondensed-Medium.otf'
p1027
aS'/System/Library/Fonts/SFNSTextCondensed-Light.otf'
p1028
aS'/Library/Fonts/STIXSizFourSymReg.otf'
p1029
aS'/Library/Fonts/Apple Chancery.ttf'
p1030
aS'/System/Library/Fonts/SFCompactText-LightItalic.otf'
p1031
aS'/Library/Fonts/TeamViewer12.otf'
p1032
aS'/Library/Fonts/Wingdings 3.ttf'
p1033
aS'/Library/Fonts/Comic Sans MS Bold.ttf'
p1034
aS'/System/Library/Fonts/SFCompactDisplay-Heavy.otf'
p1035
aS'/Library/Fonts/STIXIntUpSmBol.otf'
p1036
aS'/Library/Fonts/Lao Sangam MN.ttf'
p1037
aS'/Library/Fonts/Trattatello.ttf'
p1038
aS'/Library/Fonts/STIXSizOneSymBol.otf'
p1039
aS'/Library/Fonts/Comic Sans MS.ttf'
p1040
aS'/Library/Fonts/STIXSizTwoSymReg.otf'
p1041
aS'/Library/Fonts/Bodoni Ornaments.ttf'
p1042
aS'/Library/Fonts/STIXSizFourSymBol.otf'
p1043
aS'/Library/Fonts/Arial Bold.ttf'
p1044
aS'/Library/Fonts/Georgia Bold.ttf'
p1045
aS'/Library/Fonts/STIXIntDReg.otf'
p1046
aS'/System/Library/Fonts/SFNSSymbols-Regular.otf'
p1047
aS'/Library/Fonts/Wingdings.ttf'
p1048
aS'/Library/Fonts/Impact.ttf'
p1049
aS'/Library/Fonts/Tahoma Bold.ttf'
p1050
aS'/Library/Fonts/Georgia Bold Italic.ttf'
p1051
aS'/Library/Fonts/STIXIntUpDReg.otf'
p1052
aS'/Library/Fonts/Sathu.ttf'
p1053
aS'/System/Library/Fonts/SFCompactRounded-Regular.otf'
p1054
aS'/System/Library/Fonts/SFNSDisplay-ThinItalic.otf'
p1055
asS'_FontManager__default_weight'
p1056
g13
sS'_version'
p1057
I101
sS'ttf_lookup_cache'
p1058
(dp1059
sS'default_size'
p1060
NsS'defaultFont'
p1061
(dp1062
g844
S'/System/Library/Frameworks/Python.framework/Versions/2.7/Extras/lib/python/matplotlib/mpl-data/fonts/afm/phvl8a.afm'
p1063
sg846
g876
ssS'afmfiles'
p1064
(lp1065
g1063
aS'/System/Library/Frameworks/Python.framework/Versions/2.7/Extras/lib/python/matplotlib/mpl-data/fonts/afm/putbi8a.afm'
p1066
aS'/System/Library/Frameworks/Python.framework/Versions/2.7/Extras/lib/python/matplotlib/mpl-data/fonts/afm/pcrb8a.afm'
p1067
aS'/System/Library/Frameworks/Python.framework/Versions/2.7/Extras/lib/python/matplotlib/mpl-data/fonts/afm/phvbo8a.afm'
p1068
aS'/System/Library/Frameworks/Python.framework/Versions/2.7/Extras/lib/python/matplotlib/mpl-data/fonts/afm/phvb8an.afm'
p1069
aS'/System/Library/Frameworks/Python.framework/Versions/2.7/Extras/lib/python/matplotlib/mpl-data/fonts/pdfcorefonts/Symbol.afm'
p1070
aS'/System/Library/Frameworks/Python.framework/Versions/2.7/Extras/lib/python/matplotlib/mpl-data/fonts/afm/phvbo8an.afm'
p1071
aS'/System/Library/Frameworks/Python.framework/Versions/2.7/Extras/lib/python/matplotlib/mpl-data/fonts/pdfcorefonts/Times-Roman.afm'
p1072
aS'/System/Library/Frameworks/Python.framework/Versions/2.7/Extras/lib/python/matplotlib/mpl-data/fonts/afm/pncr8a.afm'
p1073
aS'/System/Library/Frameworks/Python.framework/Versions/2.7/Extras/lib/python/matplotlib/mpl-data/fonts/afm/phvlo8a.afm'
p1074
aS'/System/Library/Frameworks/Python.framework/Versions/2.7/Extras/lib/python/matplotlib/mpl-data/fonts/pdfcorefonts/Times-Italic.afm'
p1075
aS'/System/Library/Frameworks/Python.framework/Versions/2.7/Extras/lib/python/matplotlib/mpl-data/fonts/pdfcorefonts/Helvetica.afm'
p1076
aS'/System/Library/Frameworks/Python.framework/Versions/2.7/Extras/lib/python/matplotlib/mpl-data/fonts/afm/phvr8an.afm'
p1077
aS'/System/Library/Frameworks/Python.framework/Versions/2.7/Extras/lib/python/matplotlib/mpl-data/fonts/pdfcorefonts/Courier-Bold.afm'
p1078
aS'/System/Library/Frameworks/Python.framework/Versions/2.7/Extras/lib/python/matplotlib/mpl-data/fonts/pdfcorefonts/Helvetica-Bold.afm'
p1079
aS'/System/Library/Frameworks/Python.framework/Versions/2.7/Extras/lib/python/matplotlib/mpl-data/fonts/afm/ptmb8a.afm'
p1080
aS'/System/Library/Frameworks/Python.framework/Versions/2.7/Extras/lib/python/matplotlib/mpl-data/fonts/afm/pagd8a.afm'
p1081
aS'/System/Library/Frameworks/Python.framework/Versions/2.7/Extras/lib/python/matplotlib/mpl-data/fonts/pdfcorefonts/ZapfDingbats.afm'
p1082
aS'/System/Library/Frameworks/Python.framework/Versions/2.7/Extras/lib/python/matplotlib/mpl-data/fonts/afm/putr8a.afm'
p1083
aS'/System/Library/Frameworks/Python.framework/Versions/2.7/Extras/lib/python/matplotlib/mpl-data/fonts/afm/cmtt10.afm'
p1084
aS'/System/Library/Frameworks/Python.framework/Versions/2.7/Extras/lib/python/matplotlib/mpl-data/fonts/afm/pagko8a.afm'
p1085
aS'/System/Library/Frameworks/Python.framework/Versions/2.7/Extras/lib/python/matplotlib/mpl-data/fonts/afm/ptmr8a.afm'
p1086
aS'/System/Library/Frameworks/Python.framework/Versions/2.7/Extras/lib/python/matplotlib/mpl-data/fonts/pdfcorefonts/Helvetica-Oblique.afm'
p1087
aS'/System/Library/Frameworks/Python.framework/Versions/2.7/Extras/lib/python/matplotlib/mpl-data/fonts/afm/cmr10.afm'
p1088
aS'/System/Library/Frameworks/Python.framework/Versions/2.7/Extras/lib/python/matplotlib/mpl-data/fonts/pdfcorefonts/Courier-Oblique.afm'
p1089
aS'/System/Library/Frameworks/Python.framework/Versions/2.7/Extras/lib/python/matplotlib/mpl-data/fonts/afm/pcrro8a.afm'
p1090
aS'/System/Library/Frameworks/Python.framework/Versions/2.7/Extras/lib/python/matplotlib/mpl-data/fonts/afm/pcrbo8a.afm'
p1091
aS'/System/Library/Frameworks/Python.framework/Versions/2.7/Extras/lib/python/matplotlib/mpl-data/fonts/pdfcorefonts/Courier.afm'
p1092
aS'/System/Library/Frameworks/Python.framework/Versions/2.7/Extras/lib/python/matplotlib/mpl-data/fonts/afm/ptmbi8a.afm'
p1093
aS'/System/Library/Frameworks/Python.framework/Versions/2.7/Extras/lib/python/matplotlib/mpl-data/fonts/afm/pagdo8a.afm'
p1094
aS'/System/Library/Frameworks/Python.framework/Versions/2.7/Extras/lib/python/matplotlib/mpl-data/fonts/pdfcorefonts/Times-BoldItalic.afm'
p1095
aS'/System/Library/Frameworks/Python.framework/Versions/2.7/Extras/lib/python/matplotlib/mpl-data/fonts/pdfcorefonts/Helvetica-BoldOblique.afm'
p1096
aS'/System/Library/Frameworks/Python.framework/Versions/2.7/Extras/lib/python/matplotlib/mpl-data/fonts/afm/pbkd8a.afm'
p1097
aS'/System/Library/Frameworks/Python.framework/Versions/2.7/Extras/lib/python/matplotlib/mpl-data/fonts/afm/pplr8a.afm'
p1098
aS'/System/Library/Frameworks/Python.framework/Versions/2.7/Extras/lib/python/matplotlib/mpl-data/fonts/afm/pbkdi8a.afm'
p1099
aS'/System/Library/Frameworks/Python.framework/Versions/2.7/Extras/lib/python/matplotlib/mpl-data/fonts/afm/pagk8a.afm'
p1100
aS'/System/Library/Frameworks/Python.framework/Versions/2.7/Extras/lib/python/matplotlib/mpl-data/fonts/afm/putri8a.afm'
p1101
aS'/System/Library/Frameworks/Python.framework/Versions/2.7/Extras/lib/python/matplotlib/mpl-data/fonts/afm/phvr8a.afm'
p1102
aS'/System/Library/Frameworks/Python.framework/Versions/2.7/Extras/lib/python/matplotlib/mpl-data/fonts/afm/pbkl8a.afm'
p1103
aS'/System/Library/Frameworks/Python.framework/Versions/2.7/Extras/lib/python/matplotlib/mpl-data/fonts/afm/phvro8a.afm'
p1104
aS'/System/Library/Frameworks/Python.framework/Versions/2.7/Extras/lib/python/matplotlib/mpl-data/fonts/afm/psyr.afm'
p1105
aS'/System/Library/Frameworks/Python.framework/Versions/2.7/Extras/lib/python/matplotlib/mpl-data/fonts/pdfcorefonts/Times-Bold.afm'
p1106
aS'/System/Library/Frameworks/Python.framework/Versions/2.7/Extras/lib/python/matplotlib/mpl-data/fonts/afm/pplri8a.afm'
p1107
aS'/System/Library/Frameworks/Python.framework/Versions/2.7/Extras/lib/python/matplotlib/mpl-data/fonts/afm/pncb8a.afm'
p1108
aS'/System/Library/Frameworks/Python.framework/Versions/2.7/Extras/lib/python/matplotlib/mpl-data/fonts/afm/putb8a.afm'
p1109
aS'/System/Library/Frameworks/Python.framework/Versions/2.7/Extras/lib/python/matplotlib/mpl-data/fonts/afm/pncbi8a.afm'
p1110
aS'/System/Library/Frameworks/Python.framework/Versions/2.7/Extras/lib/python/matplotlib/mpl-data/fonts/afm/phvb8a.afm'
p1111
aS'/System/Library/Frameworks/Python.framework/Versions/2.7/Extras/lib/python/matplotlib/mpl-data/fonts/afm/pbkli8a.afm'
p1112
aS'/System/Library/Frameworks/Python.framework/Versions/2.7/Extras/lib/python/matplotlib/mpl-data/fonts/afm/pcrr8a.afm'
p1113
aS'/System/Library/Frameworks/Python.framework/Versions/2.7/Extras/lib/python/matplotlib/mpl-data/fonts/afm/pzdr.afm'
p1114
aS'/System/Library/Frameworks/Python.framework/Versions/2.7/Extras/lib/python/matplotlib/mpl-data/fonts/afm/cmsy10.afm'
p1115
aS'/System/Library/Frameworks/Python.framework/Versions/2.7/Extras/lib/python/matplotlib/mpl-data/fonts/afm/cmmi10.afm'
p1116
aS'/System/Library/Frameworks/Python.framework/Versions/2.7/Extras/lib/python/matplotlib/mpl-data/fonts/afm/pplbi8a.afm'
p1117
aS'/System/Library/Frameworks/Python.framework/Versions/2.7/Extras/lib/python/matplotlib/mpl-data/fonts/afm/cmex10.afm'
p1118
aS'/System/Library/Frameworks/Python.framework/Versions/2.7/Extras/lib/python/matplotlib/mpl-data/fonts/afm/pncri8a.afm'
p1119
aS'/System/Library/Frameworks/Python.framework/Versions/2.7/Extras/lib/python/matplotlib/mpl-data/fonts/afm/ptmri8a.afm'
p1120
aS'/System/Library/Frameworks/Python.framework/Versions/2.7/Extras/lib/python/matplotlib/mpl-data/fonts/afm/pzcmi8a.afm'
p1121
aS'/System/Library/Frameworks/Python.framework/Versions/2.7/Extras/lib/python/matplotlib/mpl-data/fonts/pdfcorefonts/Courier-BoldOblique.afm'
p1122
aS'/System/Library/Frameworks/Python.framework/Versions/2.7/Extras/lib/python/matplotlib/mpl-data/fonts/afm/phvro8an.afm'
p1123
aS'/System/Library/Frameworks/Python.framework/Versions/2.7/Extras/lib/python/matplotlib/mpl-data/fonts/afm/pplb8a.afm'
p1124
asS'afmlist'
p1125
(lp1126
g7
(g8
g9
NtRp1127
(dp1128
g12
g13
sg14
S'Helvetica'
p1129
sg16
I200
sg17
g13
sg18
g13
sg19
g1063
sg21
g22
sbag7
(g8
g9
NtRp1130
(dp1131
g12
g74
sg14
S'Utopia'
p1132
sg16
I700
sg17
g13
sg18
g13
sg19
g1066
sg21
g22
sbag7
(g8
g9
NtRp1133
(dp1134
g12
g13
sg14
S'Courier'
p1135
sg16
I700
sg17
g13
sg18
g13
sg19
g1067
sg21
g22
sbag7
(g8
g9
NtRp1136
(dp1137
g12
g74
sg14
S'Helvetica'
p1138
sg16
I700
sg17
g13
sg18
g13
sg19
g1068
sg21
g22
sbag7
(g8
g9
NtRp1139
(dp1140
g12
g13
sg14
S'Helvetica'
p1141
sg16
I700
sg17
g200
sg18
g13
sg19
g1069
sg21
g22
sbag7
(g8
g9
NtRp1142
(dp1143
g12
g13
sg14
S'Symbol'
p1144
sg16
I500
sg17
g13
sg18
g13
sg19
g1070
sg21
g22
sbag7
(g8
g9
NtRp1145
(dp1146
g12
g74
sg14
S'Helvetica'
p1147
sg16
I700
sg17
g200
sg18
g13
sg19
g1071
sg21
g22
sbag7
(g8
g9
NtRp1148
(dp1149
g12
g13
sg14
S'Times'
p1150
sg16
I500
sg17
g13
sg18
g13
sg19
g1072
sg21
g22
sbag7
(g8
g9
NtRp1151
(dp1152
g12
g13
sg14
S'New Century Schoolbook'
p1153
sg16
I500
sg17
g13
sg18
g13
sg19
g1073
sg21
g22
sbag7
(g8
g9
NtRp1154
(dp1155
g12
g74
sg14
S'Helvetica'
p1156
sg16
I200
sg17
g13
sg18
g13
sg19
g1074
sg21
g22
sbag7
(g8
g9
NtRp1157
(dp1158
g12
g74
sg14
S'Times'
p1159
sg16
I500
sg17
g13
sg18
g13
sg19
g1075
sg21
g22
sbag7
(g8
g9
NtRp1160
(dp1161
g12
g13
sg14
S'Helvetica'
p1162
sg16
I500
sg17
g13
sg18
g13
sg19
g1076
sg21
g22
sbag7
(g8
g9
NtRp1163
(dp1164
g12
g13
sg14
S'Helvetica'
p1165
sg16
I500
sg17
g200
sg18
g13
sg19
g1077
sg21
g22
sbag7
(g8
g9
NtRp1166
(dp1167
g12
g13
sg14
S'Courier'
p1168
sg16
I700
sg17
g13
sg18
g13
sg19
g1078
sg21
g22
sbag7
(g8
g9
NtRp1169
(dp1170
g12
g13
sg14
S'Helvetica'
p1171
sg16
I700
sg17
g13
sg18
g13
sg19
g1079
sg21
g22
sbag7
(g8
g9
NtRp1172
(dp1173
g12
g13
sg14
S'Times'
p1174
sg16
I700
sg17
g13
sg18
g13
sg19
g1080
sg21
g22
sbag7
(g8
g9
NtRp1175
(dp1176
g12
g13
sg14
S'ITC Avant Garde Gothic'
p1177
sg16
I600
sg17
g13
sg18
g13
sg19
g1081
sg21
g22
sbag7
(g8
g9
NtRp1178
(dp1179
g12
g13
sg14
S'ZapfDingbats'
p1180
sg16
I500
sg17
g13
sg18
g13
sg19
g1082
sg21
g22
sbag7
(g8
g9
NtRp1181
(dp1182
g12
g13
sg14
S'Utopia'
p1183
sg16
I400
sg17
g13
sg18
g13
sg19
g1083
sg21
g22
sbag7
(g8
g9
NtRp1184
(dp1185
g12
g13
sg14
S'Computer Modern'
p1186
sg16
I500
sg17
g13
sg18
g13
sg19
g1084
sg21
g22
sbag7
(g8
g9
NtRp1187
(dp1188
g12
g74
sg14
S'ITC Avant Garde Gothic'
p1189
sg16
I400
sg17
g13
sg18
g13
sg19
g1085
sg21
g22
sbag7
(g8
g9
NtRp1190
(dp1191
g12
g13
sg14
S'Times'
p1192
sg16
I500
sg17
g13
sg18
g13
sg19
g1086
sg21
g22
sbag7
(g8
g9
NtRp1193
(dp1194
g12
g74
sg14
S'Helvetica'
p1195
sg16
I500
sg17
g13
sg18
g13
sg19
g1087
sg21
g22
sbag7
(g8
g9
NtRp1196
(dp1197
g12
g13
sg14
S'Computer Modern'
p1198
sg16
I500
sg17
g13
sg18
g13
sg19
g1088
sg21
g22
sbag7
(g8
g9
NtRp1199
(dp1200
g12
g74
sg14
S'Courier'
p1201
sg16
I500
sg17
g13
sg18
g13
sg19
g1089
sg21
g22
sbag7
(g8
g9
NtRp1202
(dp1203
g12
g74
sg14
S'Courier'
p1204
sg16
I500
sg17
g13
sg18
g13
sg19
g1090
sg21
g22
sbag7
(g8
g9
NtRp1205
(dp1206
g12
g74
sg14
S'Courier'
p1207
sg16
I700
sg17
g13
sg18
g13
sg19
g1091
sg21
g22
sbag7
(g8
g9
NtRp1208
(dp1209
g12
g13
sg14
S'Courier'
p1210
sg16
I500
sg17
g13
sg18
g13
sg19
g1092
sg21
g22
sbag7
(g8
g9
NtRp1211
(dp1212
g12
g74
sg14
S'Times'
p1213
sg16
I700
sg17
g13
sg18
g13
sg19
g1093
sg21
g22
sbag7
(g8
g9
NtRp1214
(dp1215
g12
g74
sg14
S'ITC Avant Garde Gothic'
p1216
sg16
I600
sg17
g13
sg18
g13
sg19
g1094
sg21
g22
sbag7
(g8
g9
NtRp1217
(dp1218
g12
g74
sg14
S'Times'
p1219
sg16
I700
sg17
g13
sg18
g13
sg19
g1095
sg21
g22
sbag7
(g8
g9
NtRp1220
(dp1221
g12
g74
sg14
S'Helvetica'
p1222
sg16
I700
sg17
g13
sg18
g13
sg19
g1096
sg21
g22
sbag7
(g8
g9
NtRp1223
(dp1224
g12
g13
sg14
S'ITC Bookman'
p1225
sg16
I600
sg17
g13
sg18
g13
sg19
g1097
sg21
g22
sbag7
(g8
g9
NtRp1226
(dp1227
g12
g13
sg14
S'Palatino'
p1228
sg16
I500
sg17
g13
sg18
g13
sg19
g1098
sg21
g22
sbag7
(g8
g9
NtRp1229
(dp1230
g12
g74
sg14
S'ITC Bookman'
p1231
sg16
I600
sg17
g13
sg18
g13
sg19
g1099
sg21
g22
sbag7
(g8
g9
NtRp1232
(dp1233
g12
g13
sg14
S'ITC Avant Garde Gothic'
p1234
sg16
I400
sg17
g13
sg18
g13
sg19
g1100
sg21
g22
sbag7
(g8
g9
NtRp1235
(dp1236
g12
g74
sg14
S'Utopia'
p1237
sg16
I400
sg17
g13
sg18
g13
sg19
g1101
sg21
g22
sbag7
(g8
g9
NtRp1238
(dp1239
g12
g13
sg14
S'Helvetica'
p1240
sg16
I500
sg17
g13
sg18
g13
sg19
g1102
sg21
g22
sbag7
(g8
g9
NtRp1241
(dp1242
g12
g13
sg14
S'ITC Bookman'
p1243
sg16
I200
sg17
g13
sg18
g13
sg19
g1103
sg21
g22
sbag7
(g8
g9
NtRp1244
(dp1245
g12
g74
sg14
S'Helvetica'
p1246
sg16
I500
sg17
g13
sg18
g13
sg19
g1104
sg21
g22
sbag7
(g8
g9
NtRp1247
(dp1248
g12
g13
sg14
S'Symbol'
p1249
sg16
I500
sg17
g13
sg18
g13
sg19
g1105
sg21
g22
sbag7
(g8
g9
NtRp1250
(dp1251
g12
g13
sg14
S'Times'
p1252
sg16
I700
sg17
g13
sg18
g13
sg19
g1106
sg21
g22
sbag7
(g8
g9
NtRp1253
(dp1254
g12
g74
sg14
S'Palatino'
p1255
sg16
I500
sg17
g13
sg18
g13
sg19
g1107
sg21
g22
sbag7
(g8
g9
NtRp1256
(dp1257
g12
g13
sg14
S'New Century Schoolbook'
p1258
sg16
I700
sg17
g13
sg18
g13
sg19
g1108
sg21
g22
sbag7
(g8
g9
NtRp1259
(dp1260
g12
g13
sg14
S'Utopia'
p1261
sg16
I700
sg17
g13
sg18
g13
sg19
g1109
sg21
g22
sbag7
(g8
g9
NtRp1262
(dp1263
g12
g74
sg14
S'New Century Schoolbook'
p1264
sg16
I700
sg17
g13
sg18
g13
sg19
g1110
sg21
g22
sbag7
(g8
g9
NtRp1265
(dp1266
g12
g13
sg14
S'Helvetica'
p1267
sg16
I700
sg17
g13
sg18
g13
sg19
g1111
sg21
g22
sbag7
(g8
g9
NtRp1268
(dp1269
g12
g74
sg14
S'ITC Bookman'
p1270
sg16
I200
sg17
g13
sg18
g13
sg19
g1112
sg21
g22
sbag7
(g8
g9
NtRp1271
(dp1272
g12
g13
sg14
S'Courier'
p1273
sg16
I500
sg17
g13
sg18
g13
sg19
g1113
sg21
g22
sbag7
(g8
g9
NtRp1274
(dp1275
g12
g13
sg14
S'ITC Zapf Dingbats'
p1276
sg16
I500
sg17
g13
sg18
g13
sg19
g1114
sg21
g22
sbag7
(g8
g9
NtRp1277
(dp1278
g12
g74
sg14
S'Computer Modern'
p1279
sg16
I500
sg17
g13
sg18
g13
sg19
g1115
sg21
g22
sbag7
(g8
g9
NtRp1280
(dp1281
g12
g74
sg14
S'Computer Modern'
p1282
sg16
I500
sg17
g13
sg18
g13
sg19
g1116
sg21
g22
sbag7
(g8
g9
NtRp1283
(dp1284
g12
g74
sg14
S'Palatino'
p1285
sg16
I700
sg17
g13
sg18
g13
sg19
g1117
sg21
g22
sbag7
(g8
g9
NtRp1286
(dp1287
g12
g13
sg14
S'Computer Modern'
p1288
sg16
I500
sg17
g13
sg18
g13
sg19
g1118
sg21
g22
sbag7
(g8
g9
NtRp1289
(dp1290
g12
g74
sg14
S'New Century Schoolbook'
p1291
sg16
I500
sg17
g13
sg18
g13
sg19
g1119
sg21
g22
sbag7
(g8
g9
NtRp1292
(dp1293
g12
g74
sg14
S'Times'
p1294
sg16
I500
sg17
g13
sg18
g13
sg19
g1120
sg21
g22
sbag7
(g8
g9
NtRp1295
(dp1296
g12
g74
sg14
S'ITC Zapf Chancery'
p1297
sg16
I500
sg17
g13
sg18
g13
sg19
g1121
sg21
g22
sbag7
(g8
g9
NtRp1298
(dp1299
g12
g74
sg14
S'Courier'
p1300
sg16
I700
sg17
g13
sg18
g13
sg19
g1122
sg21
g22
sbag7
(g8
g9
NtRp1301
(dp1302
g12
g74
sg14
S'Helvetica'
p1303
sg16
I500
sg17
g200
sg18
g13
sg19
g1123
sg21
g22
sbag7
(g8
g9
NtRp1304
(dp1305
g12
g13
sg14
S'Palatino'
p1306
sg16
I700
sg17
g13
sg18
g13
sg19
g1124
sg21
g22
sbasb.